; Function Attrs: nounwind uwtable
define ptr @l_Lean_PersistentEnvExtension_getModuleEntries___rarg___boxed(ptr noundef %0, ptr noundef %1, ptr noundef %2, ptr noundef %3, ptr noundef %4) #1 {
  %6 = ptrtoint ptr %4 to i64
  %7 = and i64 %6, 1
  %.not = icmp eq i64 %7, 0
  br i1 %.not, label %8, label %lean_dec.exit12

8:                                                ; preds = %5
  %9 = load i32, ptr %4, align 4, !tbaa !4
  %10 = icmp sgt i32 %9, 1
  br i1 %10, label %11, label %13, !prof !11

11:                                               ; preds = %8
  %12 = add nsw i32 %9, -1
  store i32 %12, ptr %4, align 4, !tbaa !4
  br label %lean_dec.exit12

13:                                               ; preds = %8
  %.not.i = icmp eq i32 %9, 0
  br i1 %.not.i, label %lean_dec.exit12, label %14

14:                                               ; preds = %13
  tail call void @lean_dec_ref_cold(ptr noundef nonnull %4) #10
  br label %lean_dec.exit12

lean_dec.exit12:                                  ; preds = %14, %13, %11, %5
  %15 = and i64 %6, 510
  %16 = icmp eq i64 %15, 0
  br i1 %16, label %17, label %23

17:                                               ; preds = %lean_dec.exit12
  %18 = getelementptr inbounds nuw i8, ptr %2, i64 8
  %19 = load ptr, ptr %18, align 8, !tbaa !9
  %20 = getelementptr inbounds nuw i8, ptr %19, i64 8
  %21 = load ptr, ptr %20, align 8, !tbaa !9
  %22 = getelementptr inbounds nuw i8, ptr %21, i64 32
  br label %l_Lean_PersistentEnvExtension_getModuleEntries___rarg.exit

23:                                               ; preds = %lean_dec.exit12
  %24 = getelementptr inbounds nuw i8, ptr %2, i64 16
  br label %l_Lean_PersistentEnvExtension_getModuleEntries___rarg.exit

l_Lean_PersistentEnvExtension_getModuleEntries___rarg.exit: ; preds = %17, %23
  %.sink.in.i = phi ptr [ %24, %23 ], [ %22, %17 ]
  %.sink.i = load ptr, ptr %.sink.in.i, align 8, !tbaa !9
  %25 = tail call ptr @l_Lean_PersistentEnvExtension_getModuleEntries_unsafe__1___rarg(ptr noundef %0, ptr noundef readonly %1, ptr noundef %3, ptr noundef %.sink.i)
  %26 = ptrtoint ptr %3 to i64
  %27 = and i64 %26, 1
  %.not19 = icmp eq i64 %27, 0
  br i1 %.not19, label %28, label %lean_dec.exit11

28:                                               ; preds = %l_Lean_PersistentEnvExtension_getModuleEntries___rarg.exit
  %29 = load i32, ptr %3, align 4, !tbaa !4
  %30 = icmp sgt i32 %29, 1
  br i1 %30, label %31, label %33, !prof !11

31:                                               ; preds = %28
  %32 = add nsw i32 %29, -1
  store i32 %32, ptr %3, align 4, !tbaa !4
  br label %lean_dec.exit11

33:                                               ; preds = %28
  %.not.i13 = icmp eq i32 %29, 0
  br i1 %.not.i13, label %lean_dec.exit11, label %34

34:                                               ; preds = %33
  tail call void @lean_dec_ref_cold(ptr noundef nonnull %3) #10
  br label %lean_dec.exit11

lean_dec.exit11:                                  ; preds = %34, %33, %31, %l_Lean_PersistentEnvExtension_getModuleEntries___rarg.exit
  %35 = ptrtoint ptr %2 to i64
  %36 = and i64 %35, 1
  %.not20 = icmp eq i64 %36, 0
  br i1 %.not20, label %37, label %lean_dec.exit10

37:                                               ; preds = %lean_dec.exit11
  %38 = load i32, ptr %2, align 4, !tbaa !4
  %39 = icmp sgt i32 %38, 1
  br i1 %39, label %40, label %42, !prof !11

40:                                               ; preds = %37
  %41 = add nsw i32 %38, -1
  store i32 %41, ptr %2, align 4, !tbaa !4
  br label %lean_dec.exit10

42:                                               ; preds = %37
  %.not.i15 = icmp eq i32 %38, 0
  br i1 %.not.i15, label %lean_dec.exit10, label %43

43:                                               ; preds = %42
  tail call void @lean_dec_ref_cold(ptr noundef nonnull %2) #10
  br label %lean_dec.exit10

lean_dec.exit10:                                  ; preds = %43, %42, %40, %lean_dec.exit11
  %44 = ptrtoint ptr %1 to i64
  %45 = and i64 %44, 1
  %.not21 = icmp eq i64 %45, 0
  br i1 %.not21, label %46, label %lean_dec.exit

46:                                               ; preds = %lean_dec.exit10
  %47 = load i32, ptr %1, align 4, !tbaa !4
  %48 = icmp sgt i32 %47, 1
  br i1 %48, label %49, label %51, !prof !11

49:                                               ; preds = %46
  %50 = add nsw i32 %47, -1
  store i32 %50, ptr %1, align 4, !tbaa !4
  br label %lean_dec.exit

51:                                               ; preds = %46
  %.not.i17 = icmp eq i32 %47, 0
  br i1 %.not.i17, label %lean_dec.exit, label %52

52:                                               ; preds = %51
  tail call void @lean_dec_ref_cold(ptr noundef nonnull %1) #10
  br label %lean_dec.exit

lean_dec.exit:                                    ; preds = %52, %51, %49, %lean_dec.exit10
  ret ptr %25
}